; Function Attrs: nounwind sspstrong uwtable
define dso_local i32 @postcopy_notify(i32 noundef %reason, ptr noundef %errp) local_unnamed_addr #0 {
entry:
  %pnd = alloca %struct.PostcopyNotifyData, align 8
  store i32 %reason, ptr %pnd, align 8
  %errp2 = getelementptr inbounds nuw i8, ptr %pnd, i64 8
  store ptr %errp, ptr %errp2, align 8
  %call = call i32 @notifier_with_return_list_notify(ptr noundef nonnull @postcopy_notifier_list, ptr noundef nonnull %pnd) #16
  ret i32 %call
}